target datalayout = "e-m:e-p270:32:32-p271:32:32-p272:64:64-i64:64-i128:128-f80:128-n8:16:32:64-S128"
target triple = "x86_64-pc-linux-gnu"

%struct.cli_matcher = type { i32, ptr, ptr, ptr, ptr, i32, i32, i32, i32, i32, %struct.cli_hash_patt, %struct.cli_hash_wild, i32, i32, i32, i32, i32, ptr, ptr, ptr, ptr, ptr, ptr, i32, i32, i8, i8, ptr, i16, i8, i32, ptr, i32, i32, i32, ptr, ptr, i32, ptr, i64, i64, ptr }
%struct.cli_hash_patt = type { [3 x %struct.cli_htu32] }
%struct.cli_htu32 = type { ptr, i64, i64, i64 }
%struct.cli_hash_wild = type { [3 x %struct.cli_sz_hash] }
%struct.cli_sz_hash = type { ptr, ptr, i32 }
%struct.cli_bcomp_meta = type { i16, [3 x i32], i64, i16, i64, ptr, i32 }

; Function Attrs: nounwind uwtable
define void @cli_bcomp_freemeta(ptr noundef %0, ptr noundef %1) #0 {
  %3 = alloca ptr, align 8
  %4 = alloca ptr, align 8
  %5 = alloca i32, align 4
  store ptr %0, ptr %3, align 8
  store ptr %1, ptr %4, align 8
  store i32 0, ptr %5, align 4
  %6 = load ptr, ptr %3, align 8
  %7 = icmp ne ptr %6, null
  br i1 %7, label %8, label %11

8:                                                ; preds = %2
  %9 = load ptr, ptr %4, align 8
  %10 = icmp ne ptr %9, null
  br i1 %10, label %12, label %11

11:                                               ; preds = %8, %2
  br label %68

12:                                               ; preds = %8
  %13 = load ptr, ptr %4, align 8
  %14 = getelementptr inbounds %struct.cli_bcomp_meta, ptr %13, i32 0, i32 5
  %15 = load ptr, ptr %14, align 8
  %16 = icmp ne ptr %15, null
  br i1 %16, label %17, label %63

17:                                               ; preds = %12
  store i32 0, ptr %5, align 4
  br label %18

18:                                               ; preds = %51, %17
  %19 = load i32, ptr %5, align 4
  %20 = load ptr, ptr %4, align 8
  %21 = getelementptr inbounds %struct.cli_bcomp_meta, ptr %20, i32 0, i32 6
  %22 = load i32, ptr %21, align 8
  %23 = icmp ult i32 %19, %22
  br i1 %23, label %24, label %54

24:                                               ; preds = %18
  %25 = load ptr, ptr %4, align 8
  %26 = getelementptr inbounds %struct.cli_bcomp_meta, ptr %25, i32 0, i32 5
  %27 = load ptr, ptr %26, align 8
  %28 = load i32, ptr %5, align 4
  %29 = zext i32 %28 to i64
  %30 = getelementptr inbounds ptr, ptr %27, i64 %29
  %31 = load ptr, ptr %30, align 8
  %32 = icmp ne ptr %31, null
  br i1 %32, label %33, label %50

33:                                               ; preds = %24
  %34 = load ptr, ptr %3, align 8
  %35 = getelementptr inbounds %struct.cli_matcher, ptr %34, i32 0, i32 41
  %36 = load ptr, ptr %35, align 8
  %37 = load ptr, ptr %4, align 8
  %38 = getelementptr inbounds %struct.cli_bcomp_meta, ptr %37, i32 0, i32 5
  %39 = load ptr, ptr %38, align 8
  %40 = load i32, ptr %5, align 4
  %41 = zext i32 %40 to i64
  %42 = getelementptr inbounds ptr, ptr %39, i64 %41
  %43 = load ptr, ptr %42, align 8
  call void @mpool_free(ptr noundef %36, ptr noundef %43)
  %44 = load ptr, ptr %4, align 8
  %45 = getelementptr inbounds %struct.cli_bcomp_meta, ptr %44, i32 0, i32 5
  %46 = load ptr, ptr %45, align 8
  %47 = load i32, ptr %5, align 4
  %48 = zext i32 %47 to i64
  %49 = getelementptr inbounds ptr, ptr %46, i64 %48
  store ptr null, ptr %49, align 8
  br label %50

50:                                               ; preds = %33, %24
  br label %51

51:                                               ; preds = %50
  %52 = load i32, ptr %5, align 4
  %53 = add i32 %52, 1
  store i32 %53, ptr %5, align 4
  br label %18

54:                                               ; preds = %18
  %55 = load ptr, ptr %3, align 8
  %56 = getelementptr inbounds %struct.cli_matcher, ptr %55, i32 0, i32 41
  %57 = load ptr, ptr %56, align 8
  %58 = load ptr, ptr %4, align 8
  %59 = getelementptr inbounds %struct.cli_bcomp_meta, ptr %58, i32 0, i32 5
  %60 = load ptr, ptr %59, align 8
  call void @mpool_free(ptr noundef %57, ptr noundef %60)
  %61 = load ptr, ptr %4, align 8
  %62 = getelementptr inbounds %struct.cli_bcomp_meta, ptr %61, i32 0, i32 5
  store ptr null, ptr %62, align 8
  br label %63

63:                                               ; preds = %54, %12
  %64 = load ptr, ptr %3, align 8
  %65 = getelementptr inbounds %struct.cli_matcher, ptr %64, i32 0, i32 41
  %66 = load ptr, ptr %65, align 8
  %67 = load ptr, ptr %4, align 8
  call void @mpool_free(ptr noundef %66, ptr noundef %67)
  store ptr null, ptr %4, align 8
  br label %68

68:                                               ; preds = %63, %11
  ret void
}