; Function Attrs: nounwind uwtable
define void @cli_bcomp_freemeta(ptr noundef readonly %0, ptr noundef %1) local_unnamed_addr #0 {
  %3 = icmp ne ptr %0, null
  %4 = icmp ne ptr %1, null
  %or.cond = and i1 %3, %4
  br i1 %or.cond, label %5, label %30

5:                                                ; preds = %2
  %6 = getelementptr inbounds i8, ptr %1, i64 40
  %7 = load ptr, ptr %6, align 8
  %.not = icmp eq ptr %7, null
  br i1 %.not, label %27, label %.preheader

.preheader:                                       ; preds = %5
  %8 = getelementptr inbounds i8, ptr %1, i64 48
  %9 = load i32, ptr %8, align 8
  %.not23 = icmp eq i32 %9, 0
  br i1 %.not23, label %._crit_edge, label %.lr.ph

.lr.ph:                                           ; preds = %.preheader
  %10 = getelementptr inbounds i8, ptr %0, i64 408
  br label %11

11:                                               ; preds = %.lr.ph, %20
  %12 = phi i32 [ %9, %.lr.ph ], [ %21, %20 ]
  %indvars.iv = phi i64 [ 0, %.lr.ph ], [ %indvars.iv.next, %20 ]
  %13 = load ptr, ptr %6, align 8
  %14 = getelementptr inbounds ptr, ptr %13, i64 %indvars.iv
  %15 = load ptr, ptr %14, align 8
  %.not21 = icmp eq ptr %15, null
  br i1 %.not21, label %20, label %16

16:                                               ; preds = %11
  %17 = load ptr, ptr %10, align 8
  tail call void @mpool_free(ptr noundef %17, ptr noundef nonnull %15) #14
  %18 = load ptr, ptr %6, align 8
  %19 = getelementptr inbounds ptr, ptr %18, i64 %indvars.iv
  store ptr null, ptr %19, align 8
  %.pre = load i32, ptr %8, align 8
  br label %20

20:                                               ; preds = %11, %16
  %21 = phi i32 [ %12, %11 ], [ %.pre, %16 ]
  %indvars.iv.next = add nuw nsw i64 %indvars.iv, 1
  %22 = zext i32 %21 to i64
  %23 = icmp ult i64 %indvars.iv.next, %22
  br i1 %23, label %11, label %._crit_edge.loopexit

._crit_edge.loopexit:                             ; preds = %20
  %.pre25 = load ptr, ptr %6, align 8
  br label %._crit_edge

._crit_edge:                                      ; preds = %._crit_edge.loopexit, %.preheader
  %24 = phi ptr [ %.pre25, %._crit_edge.loopexit ], [ %7, %.preheader ]
  %25 = getelementptr inbounds i8, ptr %0, i64 408
  %26 = load ptr, ptr %25, align 8
  tail call void @mpool_free(ptr noundef %26, ptr noundef %24) #14
  store ptr null, ptr %6, align 8
  br label %27

27:                                               ; preds = %._crit_edge, %5
  %28 = getelementptr inbounds i8, ptr %0, i64 408
  %29 = load ptr, ptr %28, align 8
  tail call void @mpool_free(ptr noundef %29, ptr noundef nonnull %1) #14
  br label %30

30:                                               ; preds = %2, %27
  ret void
}